; Function Attrs: mustprogress nounwind willreturn uwtable
define noundef ptr @Kit_GraphAppendNode(ptr noundef captures(none) %0) local_unnamed_addr #4 {
  %2 = getelementptr inbounds nuw i8, ptr %0, i64 8
  %3 = load i32, ptr %2, align 8, !tbaa !11
  %4 = getelementptr inbounds nuw i8, ptr %0, i64 12
  %5 = load i32, ptr %4, align 4, !tbaa !12
  %6 = icmp eq i32 %3, %5
  %7 = getelementptr inbounds nuw i8, ptr %0, i64 16
  %8 = load ptr, ptr %7, align 8, !tbaa !13
  br i1 %6, label %9, label %._crit_edge

9:                                                ; preds = %1
  %.not = icmp eq ptr %8, null
  %10 = shl nsw i32 %3, 1
  %11 = sext i32 %10 to i64
  %12 = mul nsw i64 %11, 24
  br i1 %.not, label %15, label %13

13:                                               ; preds = %9
  %14 = tail call ptr @realloc(ptr noundef nonnull %8, i64 noundef %12) #22
  %.pre = load i32, ptr %4, align 4, !tbaa !12
  %.pre15.pre = load i32, ptr %2, align 8, !tbaa !11
  %.pre17 = shl nsw i32 %.pre, 1
  br label %17

15:                                               ; preds = %9
  %16 = tail call noalias ptr @malloc(i64 noundef %12) #20
  br label %17

17:                                               ; preds = %15, %13
  %.pre-phi = phi i32 [ %10, %15 ], [ %.pre17, %13 ]
  %.pre15 = phi i32 [ %3, %15 ], [ %.pre15.pre, %13 ]
  %18 = phi ptr [ %16, %15 ], [ %14, %13 ]
  store ptr %18, ptr %7, align 8, !tbaa !13
  store i32 %.pre-phi, ptr %4, align 4, !tbaa !12
  br label %._crit_edge

._crit_edge:                                      ; preds = %1, %17
  %19 = phi i32 [ %.pre15, %17 ], [ %3, %1 ]
  %20 = phi ptr [ %18, %17 ], [ %8, %1 ]
  %21 = add nsw i32 %19, 1
  store i32 %21, ptr %2, align 8, !tbaa !11
  %22 = sext i32 %19 to i64
  %23 = getelementptr inbounds %struct.Kit_Node_t_, ptr %20, i64 %22
  tail call void @llvm.memset.p0.i64(ptr noundef nonnull align 8 dereferenceable(24) %23, i8 0, i64 24, i1 false)
  ret ptr %23
}